target datalayout = "e-m:e-p270:32:32-p271:32:32-p272:64:64-i64:64-i128:128-f80:128-n8:16:32:64-S128"
target triple = "x86_64-pc-linux-gnu"

; Function Attrs: nounwind uwtable
define i64 @stbds_log2(i64 noundef %0) #0 {
  %2 = alloca i64, align 8
  %3 = alloca i64, align 8
  store i64 %0, ptr %2, align 8, !tbaa !7
  call void @llvm.lifetime.start.p0(i64 8, ptr %3) #7
  store i64 0, ptr %3, align 8, !tbaa !7
  br label %4

4:                                                ; preds = %7, %1
  %5 = load i64, ptr %2, align 8, !tbaa !7
  %6 = icmp ugt i64 %5, 1
  br i1 %6, label %7, label %12

7:                                                ; preds = %4
  %8 = load i64, ptr %2, align 8, !tbaa !7
  %9 = lshr i64 %8, 1
  store i64 %9, ptr %2, align 8, !tbaa !7
  %10 = load i64, ptr %3, align 8, !tbaa !7
  %11 = add i64 %10, 1
  store i64 %11, ptr %3, align 8, !tbaa !7
  br label %4, !llvm.loop !14

12:                                               ; preds = %4
  %13 = load i64, ptr %3, align 8, !tbaa !7
  call void @llvm.lifetime.end.p0(i64 8, ptr %3) #7
  ret i64 %13
}