; Function Attrs: nofree norecurse nosync nounwind memory(none) uwtable
define i64 @stbds_log2(i64 noundef %0) local_unnamed_addr #7 {
  %2 = icmp ugt i64 %0, 1
  br i1 %2, label %.lr.ph, label %._crit_edge

.lr.ph:                                           ; preds = %1, %.lr.ph
  %.06 = phi i64 [ %4, %.lr.ph ], [ 0, %1 ]
  %.045 = phi i64 [ %3, %.lr.ph ], [ %0, %1 ]
  %3 = lshr i64 %.045, 1
  %4 = add nuw nsw i64 %.06, 1
  %5 = icmp ugt i64 %.045, 3
  br i1 %5, label %.lr.ph, label %._crit_edge, !llvm.loop !11

._crit_edge:                                      ; preds = %.lr.ph, %1
  %.0.lcssa = phi i64 [ 0, %1 ], [ %4, %.lr.ph ]
  ret i64 %.0.lcssa
}